target datalayout = "e-m:e-p270:32:32-p271:32:32-p272:64:64-i64:64-i128:128-f80:128-n8:16:32:64-S128"
target triple = "x86_64-pc-linux-gnu"

%struct._lv_global_t = type { i8, i8, %struct.lv_ll_t, ptr, ptr, %struct.lv_ll_t, i8, i32, i32, ptr, %struct.lv_ll_t, ptr, %struct.lv_ll_t, ptr, ptr, i32, ptr, i8, i32, i32, ptr, i32, %struct.lv_timer_state_t, %struct.lv_anim_state_t, %struct.lv_tick_state_t, %struct._lv_draw_buf_handlers_t, %struct._lv_draw_buf_handlers_t, %struct._lv_draw_buf_handlers_t, %struct.lv_ll_t, ptr, ptr, %struct.lv_draw_global_info_t, [4 x %struct.lv_draw_sw_mask_radius_circle_dsc_t], ptr, ptr, ptr, %struct.lv_tlsf_state_t, %struct.lv_ll_t, ptr, ptr, %struct.lv_style_t, i64, ptr, i32, ptr }
%struct.lv_timer_state_t = type { %struct.lv_ll_t, i8, i8, i8, i8, i32, i8, i32, i32, i32, i32, ptr, ptr }
%struct.lv_anim_state_t = type { i8, i8, ptr, %struct.lv_ll_t }
%struct.lv_tick_state_t = type { i32, i8, ptr, ptr }
%struct._lv_draw_buf_handlers_t = type { ptr, ptr, ptr, ptr, ptr, ptr }
%struct.lv_draw_global_info_t = type { ptr, i32, i32, i32, i32, i8 }
%struct.lv_draw_sw_mask_radius_circle_dsc_t = type { ptr, ptr, ptr, ptr, i32, i32, i32 }
%struct.lv_tlsf_state_t = type { ptr, i64, i64, %struct.lv_ll_t }
%struct.lv_ll_t = type { i32, ptr, ptr }
%struct.lv_style_t = type { ptr, i32, i8 }
%struct._lv_cache_ops_t = type { ptr, ptr, ptr }
%struct._lv_cache_class_t = type { ptr, ptr, ptr, ptr, ptr, ptr, ptr, ptr, ptr, ptr, ptr }
%struct._lv_freetype_context_t = type { ptr, %struct.lv_ll_t, ptr, i32, ptr }

@lv_global = external global %struct._lv_global_t, align 8
@__const.lv_freetype_init.ops = private unnamed_addr constant %struct._lv_cache_ops_t { ptr @cache_node_cache_compare_cb, ptr @cache_node_cache_create_cb, ptr @cache_node_cache_free_cb }, align 8
@lv_cache_class_lru_rb_count = external constant %struct._lv_cache_class_t, align 8
@.str = private unnamed_addr constant [20 x i8] c"FREETYPE_CACHE_NODE\00", align 1

; Function Attrs: nounwind uwtable
define ptr @lv_freetype_get_context() #0 {
  %1 = load ptr, ptr getelementptr inbounds nuw (%struct._lv_global_t, ptr @lv_global, i32 0, i32 38), align 8, !tbaa !7
  ret ptr %1
}

; Function Attrs: nounwind uwtable
define i32 @lv_freetype_init(i32 noundef %0) #0 {
  %2 = alloca i32, align 4
  %3 = alloca i32, align 4
  %4 = alloca ptr, align 8
  %5 = alloca i32, align 4
  %6 = alloca i32, align 4
  %7 = alloca %struct._lv_cache_ops_t, align 8
  store i32 %0, ptr %3, align 4, !tbaa !3
  %8 = load ptr, ptr getelementptr inbounds nuw (%struct._lv_global_t, ptr @lv_global, i32 0, i32 38), align 8, !tbaa !7
  %9 = icmp ne ptr %8, null
  br i1 %9, label %10, label %13

10:                                               ; preds = %1
  br label %11

11:                                               ; preds = %10
  br label %12

12:                                               ; preds = %11
  store i32 0, ptr %2, align 4
  br label %53

13:                                               ; preds = %1
  %14 = call ptr @lv_malloc_zeroed(i64 noundef 56)
  store ptr %14, ptr getelementptr inbounds nuw (%struct._lv_global_t, ptr @lv_global, i32 0, i32 38), align 8, !tbaa !7
  br label %15

15:                                               ; preds = %13
  %16 = load ptr, ptr getelementptr inbounds nuw (%struct._lv_global_t, ptr @lv_global, i32 0, i32 38), align 8, !tbaa !7
  %17 = icmp ne ptr %16, null
  br i1 %17, label %22, label %18

18:                                               ; preds = %15
  br label %19

19:                                               ; preds = %18
  br label %20

20:                                               ; preds = %19
  br label %21

21:                                               ; preds = %20, %21
  br label %21

22:                                               ; preds = %15
  br label %23

23:                                               ; preds = %22
  %24 = load ptr, ptr getelementptr inbounds nuw (%struct._lv_global_t, ptr @lv_global, i32 0, i32 38), align 8, !tbaa !7
  %25 = icmp ne ptr %24, null
  br i1 %25, label %29, label %26

26:                                               ; preds = %23
  br label %27

27:                                               ; preds = %26
  br label %28

28:                                               ; preds = %27
  store i32 0, ptr %2, align 4
  br label %53

29:                                               ; preds = %23
  call void @llvm.lifetime.start.p0(i64 8, ptr %4) #7
  %30 = call ptr @lv_freetype_get_context()
  store ptr %30, ptr %4, align 8, !tbaa !20
  %31 = load i32, ptr %3, align 4, !tbaa !3
  %32 = load ptr, ptr %4, align 8, !tbaa !20
  %33 = getelementptr inbounds nuw %struct._lv_freetype_context_t, ptr %32, i32 0, i32 3
  store i32 %31, ptr %33, align 8, !tbaa !21
  call void @llvm.lifetime.start.p0(i64 4, ptr %5) #7
  %34 = load ptr, ptr %4, align 8, !tbaa !20
  %35 = getelementptr inbounds nuw %struct._lv_freetype_context_t, ptr %34, i32 0, i32 0
  %36 = call i32 @FT_Init_FreeType(ptr noundef %35)
  store i32 %36, ptr %5, align 4, !tbaa !3
  %37 = load i32, ptr %5, align 4, !tbaa !3
  %38 = icmp ne i32 %37, 0
  br i1 %38, label %39, label %43

39:                                               ; preds = %29
  br label %40

40:                                               ; preds = %39
  br label %41

41:                                               ; preds = %40
  br label %42

42:                                               ; preds = %41
  store i32 0, ptr %2, align 4
  store i32 1, ptr %6, align 4
  br label %52

43:                                               ; preds = %29
  %44 = load ptr, ptr %4, align 8, !tbaa !20
  %45 = getelementptr inbounds nuw %struct._lv_freetype_context_t, ptr %44, i32 0, i32 1
  call void @lv_ll_init(ptr noundef %45, i32 noundef 16)
  call void @llvm.lifetime.start.p0(i64 24, ptr %7) #7
  call void @llvm.memcpy.p0.p0.i64(ptr align 8 %7, ptr align 8 @__const.lv_freetype_init.ops, i64 24, i1 false)
  %46 = call ptr @lv_cache_create(ptr noundef @lv_cache_class_lru_rb_count, i64 noundef 56, i64 noundef 2147483647, ptr noundef byval(%struct._lv_cache_ops_t) align 8 %7)
  %47 = load ptr, ptr %4, align 8, !tbaa !20
  %48 = getelementptr inbounds nuw %struct._lv_freetype_context_t, ptr %47, i32 0, i32 4
  store ptr %46, ptr %48, align 8, !tbaa !23
  %49 = load ptr, ptr %4, align 8, !tbaa !20
  %50 = getelementptr inbounds nuw %struct._lv_freetype_context_t, ptr %49, i32 0, i32 4
  %51 = load ptr, ptr %50, align 8, !tbaa !23
  call void @lv_cache_set_name(ptr noundef %51, ptr noundef @.str)
  store i32 1, ptr %2, align 4
  store i32 1, ptr %6, align 4
  call void @llvm.lifetime.end.p0(i64 24, ptr %7) #7
  br label %52

52:                                               ; preds = %43, %42
  call void @llvm.lifetime.end.p0(i64 4, ptr %5) #7
  call void @llvm.lifetime.end.p0(i64 8, ptr %4) #7
  br label %53

53:                                               ; preds = %52, %28, %12
  %54 = load i32, ptr %2, align 4
  ret i32 %54
}