; Function Attrs: nounwind uwtable
define range(i32 0, 2) i32 @lv_freetype_init(i32 noundef %0) local_unnamed_addr #0 {
  %2 = load ptr, ptr getelementptr inbounds nuw (i8, ptr @lv_global, i64 856), align 8, !tbaa !3
  %.not = icmp eq ptr %2, null
  br i1 %.not, label %3, label %12

3:                                                ; preds = %1
  %4 = tail call ptr @lv_malloc_zeroed(i64 noundef 56) #8
  store ptr %4, ptr getelementptr inbounds nuw (i8, ptr @lv_global, i64 856), align 8, !tbaa !3
  %.not7 = icmp eq ptr %4, null
  br i1 %.not7, label %.preheader, label %5

.preheader:                                       ; preds = %3, %.preheader
  br label %.preheader

5:                                                ; preds = %3
  %6 = getelementptr inbounds nuw i8, ptr %4, i64 40
  store i32 %0, ptr %6, align 8, !tbaa !19
  %7 = tail call i32 @FT_Init_FreeType(ptr noundef nonnull %4) #8
  %.not8 = icmp eq i32 %7, 0
  br i1 %.not8, label %8, label %12

8:                                                ; preds = %5
  %9 = getelementptr inbounds nuw i8, ptr %4, i64 8
  tail call void @lv_ll_init(ptr noundef nonnull %9, i32 noundef 16) #8
  %10 = tail call ptr @lv_cache_create(ptr noundef nonnull @lv_cache_class_lru_rb_count, i64 noundef 56, i64 noundef 2147483647, ptr noundef nonnull byval(%struct._lv_cache_ops_t) align 8 @__const.lv_freetype_init.ops) #8
  %11 = getelementptr inbounds nuw i8, ptr %4, i64 48
  store ptr %10, ptr %11, align 8, !tbaa !21
  tail call void @lv_cache_set_name(ptr noundef %10, ptr noundef nonnull @.str) #8
  br label %12

12:                                               ; preds = %8, %5, %1
  %.0 = phi i32 [ 0, %1 ], [ 1, %8 ], [ 0, %5 ]
  ret i32 %.0
}